target datalayout = "e-m:e-p270:32:32-p271:32:32-p272:64:64-i64:64-i128:128-f80:128-n8:16:32:64-S128"
target triple = "x86_64-pc-linux-gnu"

%class.ciFlags = type <{ i32, i8, i8, [2 x i8] }>
%class.ciInstanceKlass = type { %class.ciKlass.base, ptr, ptr, i8, i8, i8, i32, i8, i8, i8, i8, i8, [3 x i8], %class.ciFlags, ptr, ptr, ptr, ptr, i32, ptr, ptr }
%class.ciKlass.base = type <{ %class.ciType.base, [7 x i8], ptr, i32 }>
%class.ciType.base = type <{ %class.ciMetadata, i8 }>
%class.ciMetadata = type { %class.ciBaseObject.base, ptr }
%class.ciBaseObject.base = type <{ ptr, i32 }>

; Function Attrs: mustprogress nounwind uwtable
define linkonce_odr hidden noundef ptr @_ZNK7ciKlass9get_KlassEv(ptr noundef nonnull align 8 dereferenceable(44) %0) #1 comdat align 2 {
  %2 = alloca ptr, align 8
  %3 = alloca ptr, align 8
  store ptr %0, ptr %2, align 8
  %4 = load ptr, ptr %2, align 8
  %5 = getelementptr inbounds %class.ciMetadata, ptr %4, i32 0, i32 1
  %6 = load ptr, ptr %5, align 8
  store ptr %6, ptr %3, align 8
  %7 = load ptr, ptr %3, align 8
  ret ptr %7
}

; Function Attrs: mustprogress nounwind uwtable
define linkonce_odr hidden noundef zeroext i1 @_ZNK10ciMetadata9is_loadedEv(ptr noundef nonnull align 8 dereferenceable(24) %0) #1 comdat align 2 {
  %2 = alloca ptr, align 8
  store ptr %0, ptr %2, align 8
  %3 = load ptr, ptr %2, align 8
  %4 = getelementptr inbounds %class.ciMetadata, ptr %3, i32 0, i32 1
  %5 = load ptr, ptr %4, align 8
  %6 = icmp ne ptr %5, null
  br i1 %6, label %12, label %7

7:                                                ; preds = %1
  %8 = load ptr, ptr %3, align 8
  %9 = getelementptr inbounds ptr, ptr %8, i64 4
  %10 = load ptr, ptr %9, align 8
  %11 = call noundef zeroext i1 %10(ptr noundef nonnull align 8 dereferenceable(24) %3)
  br label %12

12:                                               ; preds = %7, %1
  %13 = phi i1 [ true, %1 ], [ %11, %7 ]
  ret i1 %13
}

; Function Attrs: mustprogress nounwind uwtable
define hidden noundef zeroext i1 @_ZNK15ciInstanceKlass19uses_default_loaderEv(ptr noundef nonnull align 8 dereferenceable(144) %0) #1 align 2 {
  %2 = alloca ptr, align 8
  store ptr %0, ptr %2, align 8
  %3 = load ptr, ptr %2, align 8
  %4 = getelementptr inbounds %class.ciInstanceKlass, ptr %3, i32 0, i32 1
  %5 = load ptr, ptr %4, align 8
  %6 = icmp eq ptr %5, null
  ret i1 %6
}

; Function Attrs: mustprogress nounwind uwtable
define hidden noundef zeroext i8 @_ZNK15ciInstanceKlass14box_klass_typeEv(ptr noundef nonnull align 8 dereferenceable(144) %0) #1 align 2 {
  %2 = alloca i8, align 1
  %3 = alloca ptr, align 8
  store ptr %0, ptr %3, align 8
  %4 = load ptr, ptr %3, align 8
  %5 = call noundef zeroext i1 @_ZNK15ciInstanceKlass19uses_default_loaderEv(ptr noundef nonnull align 8 dereferenceable(144) %4)
  br i1 %5, label %6, label %11

6:                                                ; preds = %1
  %7 = call noundef zeroext i1 @_ZNK10ciMetadata9is_loadedEv(ptr noundef nonnull align 8 dereferenceable(24) %4)
  br i1 %7, label %8, label %11

8:                                                ; preds = %6
  %9 = call noundef ptr @_ZNK7ciKlass9get_KlassEv(ptr noundef nonnull align 8 dereferenceable(44) %4)
  %10 = call noundef zeroext i8 @_ZN9vmClasses14box_klass_typeEP5Klass(ptr noundef %9)
  store i8 %10, ptr %2, align 1
  br label %12

11:                                               ; preds = %6, %1
  store i8 12, ptr %2, align 1
  br label %12

12:                                               ; preds = %11, %8
  %13 = load i8, ptr %2, align 1
  ret i8 %13
}