; Function Attrs: mustprogress nounwind uwtable
define hidden noundef zeroext i8 @_ZNK15ciInstanceKlass14box_klass_typeEv(ptr noundef nonnull align 8 dereferenceable(144) %0) local_unnamed_addr #0 align 2 {
  %2 = getelementptr inbounds i8, ptr %0, i64 48
  %3 = load ptr, ptr %2, align 8
  %4 = icmp eq ptr %3, null
  br i1 %4, label %5, label %14

5:                                                ; preds = %1
  %6 = getelementptr inbounds i8, ptr %0, i64 16
  %7 = load ptr, ptr %6, align 8
  %.not.i = icmp eq ptr %7, null
  br i1 %.not.i, label %_ZNK10ciMetadata9is_loadedEv.exit, label %_ZNK10ciMetadata9is_loadedEv.exit.thread

_ZNK10ciMetadata9is_loadedEv.exit:                ; preds = %5
  %8 = load ptr, ptr %0, align 8
  %9 = getelementptr inbounds i8, ptr %8, i64 32
  %10 = load ptr, ptr %9, align 8
  %11 = tail call noundef zeroext i1 %10(ptr noundef nonnull align 8 dereferenceable(24) %0) #11
  br i1 %11, label %_ZNK10ciMetadata9is_loadedEv.exit._ZNK10ciMetadata9is_loadedEv.exit.thread_crit_edge, label %14

_ZNK10ciMetadata9is_loadedEv.exit._ZNK10ciMetadata9is_loadedEv.exit.thread_crit_edge: ; preds = %_ZNK10ciMetadata9is_loadedEv.exit
  %.pre = load ptr, ptr %6, align 8
  br label %_ZNK10ciMetadata9is_loadedEv.exit.thread

_ZNK10ciMetadata9is_loadedEv.exit.thread:         ; preds = %_ZNK10ciMetadata9is_loadedEv.exit._ZNK10ciMetadata9is_loadedEv.exit.thread_crit_edge, %5
  %12 = phi ptr [ %.pre, %_ZNK10ciMetadata9is_loadedEv.exit._ZNK10ciMetadata9is_loadedEv.exit.thread_crit_edge ], [ %7, %5 ]
  %13 = tail call noundef zeroext i8 @_ZN9vmClasses14box_klass_typeEP5Klass(ptr noundef %12) #11
  br label %14

14:                                               ; preds = %1, %_ZNK10ciMetadata9is_loadedEv.exit, %_ZNK10ciMetadata9is_loadedEv.exit.thread
  %.0 = phi i8 [ %13, %_ZNK10ciMetadata9is_loadedEv.exit.thread ], [ 12, %_ZNK10ciMetadata9is_loadedEv.exit ], [ 12, %1 ]
  ret i8 %.0
}